; Function Attrs: mustprogress nofree norecurse nosync nounwind willreturn memory(argmem: write) uwtable
define dso_local void @_ZN13StatusPrinter12BuildStartedEv(ptr noundef nonnull writeonly align 8 captures(none) dereferenceable(296) initializes((16, 24), (28, 32)) %0) unnamed_addr #9 align 2 {
  %2 = getelementptr inbounds nuw i8, ptr %0, i64 16
  store i32 0, ptr %2, align 8, !tbaa !65
  %3 = getelementptr inbounds nuw i8, ptr %0, i64 20
  store i32 0, ptr %3, align 4, !tbaa !89
  %4 = getelementptr inbounds nuw i8, ptr %0, i64 28
  store i32 0, ptr %4, align 4, !tbaa !66
  ret void
}